target datalayout = "e-m:e-p270:32:32-p271:32:32-p272:64:64-i64:64-i128:128-f80:128-n8:16:32:64-S128"
target triple = "x86_64-pc-linux-gnu"

%"class.pxrInternal_v0_24__pxrReserved__::UsdNamespaceEditor" = type { %"class.pxrInternal_v0_24__pxrReserved__::TfRefPtr", %"struct.pxrInternal_v0_24__pxrReserved__::UsdNamespaceEditor::EditOptions", %"struct.pxrInternal_v0_24__pxrReserved__::UsdNamespaceEditor::_EditDescription", %"class.std::optional" }
%"class.pxrInternal_v0_24__pxrReserved__::TfRefPtr" = type { ptr }
%"struct.pxrInternal_v0_24__pxrReserved__::UsdNamespaceEditor::EditOptions" = type { i8 }
%"struct.pxrInternal_v0_24__pxrReserved__::UsdNamespaceEditor::_EditDescription" = type { %"class.pxrInternal_v0_24__pxrReserved__::SdfPath", %"class.pxrInternal_v0_24__pxrReserved__::SdfPath", i32 }
%"class.pxrInternal_v0_24__pxrReserved__::SdfPath" = type { %"struct.pxrInternal_v0_24__pxrReserved__::Sdf_PathNodeHandleImpl", %"struct.pxrInternal_v0_24__pxrReserved__::Sdf_PathNodeHandleImpl.0" }
%"struct.pxrInternal_v0_24__pxrReserved__::Sdf_PathNodeHandleImpl" = type { %"struct.pxrInternal_v0_24__pxrReserved__::Sdf_Pool<pxrInternal_v0_24__pxrReserved__::Sdf_PathPrimTag, 24, 8>::Handle" }
%"struct.pxrInternal_v0_24__pxrReserved__::Sdf_Pool<pxrInternal_v0_24__pxrReserved__::Sdf_PathPrimTag, 24, 8>::Handle" = type { i32 }
%"struct.pxrInternal_v0_24__pxrReserved__::Sdf_PathNodeHandleImpl.0" = type { %"struct.pxrInternal_v0_24__pxrReserved__::Sdf_Pool<pxrInternal_v0_24__pxrReserved__::Sdf_PathPropTag, 24, 8>::Handle" }
%"struct.pxrInternal_v0_24__pxrReserved__::Sdf_Pool<pxrInternal_v0_24__pxrReserved__::Sdf_PathPropTag, 24, 8>::Handle" = type { i32 }
%"class.std::optional" = type { %"struct.std::_Optional_base" }
%"struct.std::_Optional_base" = type { %"struct.std::_Optional_payload" }
%"struct.std::_Optional_payload" = type { %"struct.std::_Optional_payload.base", [7 x i8] }
%"struct.std::_Optional_payload.base" = type { %"struct.std::_Optional_payload_base.base" }
%"struct.std::_Optional_payload_base.base" = type { %"union.std::_Optional_payload_base<pxrInternal_v0_24__pxrReserved__::UsdNamespaceEditor::_ProcessedEdit>::_Storage", i8 }
%"union.std::_Optional_payload_base<pxrInternal_v0_24__pxrReserved__::UsdNamespaceEditor::_ProcessedEdit>::_Storage" = type { %"struct.pxrInternal_v0_24__pxrReserved__::UsdNamespaceEditor::_ProcessedEdit" }
%"struct.pxrInternal_v0_24__pxrReserved__::UsdNamespaceEditor::_ProcessedEdit" = type <{ %"class.std::vector", %"class.pxrInternal_v0_24__pxrReserved__::SdfBatchNamespaceEdit", %"class.std::vector.7", %"class.std::vector.12", %"class.std::vector.17", %"class.std::vector", %"class.pxrInternal_v0_24__pxrReserved__::SdfPath", i8, [7 x i8] }>
%"class.pxrInternal_v0_24__pxrReserved__::SdfBatchNamespaceEdit" = type { %"class.std::vector.2" }
%"class.std::vector.2" = type { %"struct.std::_Vector_base.3" }
%"struct.std::_Vector_base.3" = type { %"struct.std::_Vector_base<pxrInternal_v0_24__pxrReserved__::SdfNamespaceEdit, std::allocator<pxrInternal_v0_24__pxrReserved__::SdfNamespaceEdit>>::_Vector_impl" }
%"struct.std::_Vector_base<pxrInternal_v0_24__pxrReserved__::SdfNamespaceEdit, std::allocator<pxrInternal_v0_24__pxrReserved__::SdfNamespaceEdit>>::_Vector_impl" = type { %"struct.std::_Vector_base<pxrInternal_v0_24__pxrReserved__::SdfNamespaceEdit, std::allocator<pxrInternal_v0_24__pxrReserved__::SdfNamespaceEdit>>::_Vector_impl_data" }
%"struct.std::_Vector_base<pxrInternal_v0_24__pxrReserved__::SdfNamespaceEdit, std::allocator<pxrInternal_v0_24__pxrReserved__::SdfNamespaceEdit>>::_Vector_impl_data" = type { ptr, ptr, ptr }
%"class.std::vector.7" = type { %"struct.std::_Vector_base.8" }
%"struct.std::_Vector_base.8" = type { %"struct.std::_Vector_base<pxrInternal_v0_24__pxrReserved__::TfWeakPtr<pxrInternal_v0_24__pxrReserved__::SdfLayer>, std::allocator<pxrInternal_v0_24__pxrReserved__::TfWeakPtr<pxrInternal_v0_24__pxrReserved__::SdfLayer>>>::_Vector_impl" }
%"struct.std::_Vector_base<pxrInternal_v0_24__pxrReserved__::TfWeakPtr<pxrInternal_v0_24__pxrReserved__::SdfLayer>, std::allocator<pxrInternal_v0_24__pxrReserved__::TfWeakPtr<pxrInternal_v0_24__pxrReserved__::SdfLayer>>>::_Vector_impl" = type { %"struct.std::_Vector_base<pxrInternal_v0_24__pxrReserved__::TfWeakPtr<pxrInternal_v0_24__pxrReserved__::SdfLayer>, std::allocator<pxrInternal_v0_24__pxrReserved__::TfWeakPtr<pxrInternal_v0_24__pxrReserved__::SdfLayer>>>::_Vector_impl_data" }
%"struct.std::_Vector_base<pxrInternal_v0_24__pxrReserved__::TfWeakPtr<pxrInternal_v0_24__pxrReserved__::SdfLayer>, std::allocator<pxrInternal_v0_24__pxrReserved__::TfWeakPtr<pxrInternal_v0_24__pxrReserved__::SdfLayer>>>::_Vector_impl_data" = type { ptr, ptr, ptr }
%"class.std::vector.12" = type { %"struct.std::_Vector_base.13" }
%"struct.std::_Vector_base.13" = type { %"struct.std::_Vector_base<std::pair<pxrInternal_v0_24__pxrReserved__::TfWeakPtr<pxrInternal_v0_24__pxrReserved__::SdfLayer>, std::vector<std::pair<pxrInternal_v0_24__pxrReserved__::SdfPath, pxrInternal_v0_24__pxrReserved__::SdfPath>>>, std::allocator<std::pair<pxrInternal_v0_24__pxrReserved__::TfWeakPtr<pxrInternal_v0_24__pxrReserved__::SdfLayer>, std::vector<std::pair<pxrInternal_v0_24__pxrReserved__::SdfPath, pxrInternal_v0_24__pxrReserved__::SdfPath>>>>>::_Vector_impl" }
%"struct.std::_Vector_base<std::pair<pxrInternal_v0_24__pxrReserved__::TfWeakPtr<pxrInternal_v0_24__pxrReserved__::SdfLayer>, std::vector<std::pair<pxrInternal_v0_24__pxrReserved__::SdfPath, pxrInternal_v0_24__pxrReserved__::SdfPath>>>, std::allocator<std::pair<pxrInternal_v0_24__pxrReserved__::TfWeakPtr<pxrInternal_v0_24__pxrReserved__::SdfLayer>, std::vector<std::pair<pxrInternal_v0_24__pxrReserved__::SdfPath, pxrInternal_v0_24__pxrReserved__::SdfPath>>>>>::_Vector_impl" = type { %"struct.std::_Vector_base<std::pair<pxrInternal_v0_24__pxrReserved__::TfWeakPtr<pxrInternal_v0_24__pxrReserved__::SdfLayer>, std::vector<std::pair<pxrInternal_v0_24__pxrReserved__::SdfPath, pxrInternal_v0_24__pxrReserved__::SdfPath>>>, std::allocator<std::pair<pxrInternal_v0_24__pxrReserved__::TfWeakPtr<pxrInternal_v0_24__pxrReserved__::SdfLayer>, std::vector<std::pair<pxrInternal_v0_24__pxrReserved__::SdfPath, pxrInternal_v0_24__pxrReserved__::SdfPath>>>>>::_Vector_impl_data" }
%"struct.std::_Vector_base<std::pair<pxrInternal_v0_24__pxrReserved__::TfWeakPtr<pxrInternal_v0_24__pxrReserved__::SdfLayer>, std::vector<std::pair<pxrInternal_v0_24__pxrReserved__::SdfPath, pxrInternal_v0_24__pxrReserved__::SdfPath>>>, std::allocator<std::pair<pxrInternal_v0_24__pxrReserved__::TfWeakPtr<pxrInternal_v0_24__pxrReserved__::SdfLayer>, std::vector<std::pair<pxrInternal_v0_24__pxrReserved__::SdfPath, pxrInternal_v0_24__pxrReserved__::SdfPath>>>>>::_Vector_impl_data" = type { ptr, ptr, ptr }
%"class.std::vector.17" = type { %"struct.std::_Vector_base.18" }
%"struct.std::_Vector_base.18" = type { %"struct.std::_Vector_base<pxrInternal_v0_24__pxrReserved__::UsdNamespaceEditor::_ProcessedEdit::TargetPathListOpEdit, std::allocator<pxrInternal_v0_24__pxrReserved__::UsdNamespaceEditor::_ProcessedEdit::TargetPathListOpEdit>>::_Vector_impl" }
%"struct.std::_Vector_base<pxrInternal_v0_24__pxrReserved__::UsdNamespaceEditor::_ProcessedEdit::TargetPathListOpEdit, std::allocator<pxrInternal_v0_24__pxrReserved__::UsdNamespaceEditor::_ProcessedEdit::TargetPathListOpEdit>>::_Vector_impl" = type { %"struct.std::_Vector_base<pxrInternal_v0_24__pxrReserved__::UsdNamespaceEditor::_ProcessedEdit::TargetPathListOpEdit, std::allocator<pxrInternal_v0_24__pxrReserved__::UsdNamespaceEditor::_ProcessedEdit::TargetPathListOpEdit>>::_Vector_impl_data" }
%"struct.std::_Vector_base<pxrInternal_v0_24__pxrReserved__::UsdNamespaceEditor::_ProcessedEdit::TargetPathListOpEdit, std::allocator<pxrInternal_v0_24__pxrReserved__::UsdNamespaceEditor::_ProcessedEdit::TargetPathListOpEdit>>::_Vector_impl_data" = type { ptr, ptr, ptr }
%"class.std::vector" = type { %"struct.std::_Vector_base" }
%"struct.std::_Vector_base" = type { %"struct.std::_Vector_base<std::__cxx11::basic_string<char>, std::allocator<std::__cxx11::basic_string<char>>>::_Vector_impl" }
%"struct.std::_Vector_base<std::__cxx11::basic_string<char>, std::allocator<std::__cxx11::basic_string<char>>>::_Vector_impl" = type { %"struct.std::_Vector_base<std::__cxx11::basic_string<char>, std::allocator<std::__cxx11::basic_string<char>>>::_Vector_impl_data" }
%"struct.std::_Vector_base<std::__cxx11::basic_string<char>, std::allocator<std::__cxx11::basic_string<char>>>::_Vector_impl_data" = type { ptr, ptr, ptr }
%"class.pxrInternal_v0_24__pxrReserved__::TfCallContext" = type <{ ptr, ptr, i64, ptr, i8, [7 x i8] }>
%"struct.std::_Optional_payload_base" = type { %"union.std::_Optional_payload_base<pxrInternal_v0_24__pxrReserved__::UsdNamespaceEditor::_ProcessedEdit>::_Storage", i8, [7 x i8] }

@.str = private unnamed_addr constant [125 x i8] c"generated/home/dtcxzyw/WorkSpace/Projects/compilers/llvm-opt-benchmark/bench/openusd/OpenUSD/pxr/usd/usd/namespaceEditor.cpp\00", align 1
@__func__._ZN32pxrInternal_v0_24__pxrReserved__18UsdNamespaceEditor10ApplyEditsEv = private unnamed_addr constant [11 x i8] c"ApplyEdits\00", align 1
@__PRETTY_FUNCTION__._ZN32pxrInternal_v0_24__pxrReserved__18UsdNamespaceEditor10ApplyEditsEv = private unnamed_addr constant [72 x i8] c"bool pxrInternal_v0_24__pxrReserved__::UsdNamespaceEditor::ApplyEdits()\00", align 1
@.str.1 = private unnamed_addr constant [24 x i8] c"Failed to process edits\00", align 1

; Function Attrs: mustprogress nounwind uwtable
define linkonce_odr void @_ZNSt22_Optional_payload_baseIN32pxrInternal_v0_24__pxrReserved__18UsdNamespaceEditor14_ProcessedEditEE10_M_destroyEv(ptr noundef nonnull align 8 dereferenceable(161) %0) #1 comdat align 2 {
  %2 = alloca ptr, align 8
  store ptr %0, ptr %2, align 8
  %3 = load ptr, ptr %2, align 8
  %4 = getelementptr inbounds nuw %"struct.std::_Optional_payload_base", ptr %3, i32 0, i32 1
  store i8 0, ptr %4, align 8
  %5 = getelementptr inbounds nuw %"struct.std::_Optional_payload_base", ptr %3, i32 0, i32 0
  call void @_ZN32pxrInternal_v0_24__pxrReserved__18UsdNamespaceEditor14_ProcessedEditD2Ev(ptr noundef nonnull align 8 dereferenceable(153) %5) #11
  ret void
}

; Function Attrs: mustprogress nounwind uwtable
define linkonce_odr void @_ZNSt22_Optional_payload_baseIN32pxrInternal_v0_24__pxrReserved__18UsdNamespaceEditor14_ProcessedEditEE8_M_resetEv(ptr noundef nonnull align 8 dereferenceable(161) %0) #1 comdat align 2 {
  %2 = alloca ptr, align 8
  store ptr %0, ptr %2, align 8
  %3 = load ptr, ptr %2, align 8
  %4 = getelementptr inbounds nuw %"struct.std::_Optional_payload_base", ptr %3, i32 0, i32 1
  %5 = load i8, ptr %4, align 8
  %6 = trunc i8 %5 to i1
  br i1 %6, label %7, label %8

7:                                                ; preds = %1
  call void @_ZNSt22_Optional_payload_baseIN32pxrInternal_v0_24__pxrReserved__18UsdNamespaceEditor14_ProcessedEditEE10_M_destroyEv(ptr noundef nonnull align 8 dereferenceable(161) %3) #11
  br label %8

8:                                                ; preds = %7, %1
  ret void
}

; Function Attrs: mustprogress nounwind uwtable
define linkonce_odr void @_ZNSt19_Optional_base_implIN32pxrInternal_v0_24__pxrReserved__18UsdNamespaceEditor14_ProcessedEditESt14_Optional_baseIS2_Lb0ELb0EEE8_M_resetEv(ptr noundef nonnull align 1 dereferenceable(1) %0) #1 comdat align 2 {
  %2 = alloca ptr, align 8
  store ptr %0, ptr %2, align 8
  %3 = load ptr, ptr %2, align 8
  %4 = getelementptr inbounds nuw %"struct.std::_Optional_base", ptr %3, i32 0, i32 0
  call void @_ZNSt22_Optional_payload_baseIN32pxrInternal_v0_24__pxrReserved__18UsdNamespaceEditor14_ProcessedEditEE8_M_resetEv(ptr noundef nonnull align 8 dereferenceable(161) %4) #11
  ret void
}

; Function Attrs: mustprogress nounwind uwtable
define linkonce_odr noundef nonnull align 8 dereferenceable(153) ptr @_ZNSt22_Optional_payload_baseIN32pxrInternal_v0_24__pxrReserved__18UsdNamespaceEditor14_ProcessedEditEE6_M_getEv(ptr noundef nonnull align 8 dereferenceable(161) %0) #1 comdat align 2 {
  %2 = alloca ptr, align 8
  store ptr %0, ptr %2, align 8
  %3 = load ptr, ptr %2, align 8
  %4 = getelementptr inbounds nuw %"struct.std::_Optional_payload_base", ptr %3, i32 0, i32 0
  ret ptr %4
}

; Function Attrs: mustprogress nounwind uwtable
define linkonce_odr void @_ZNSt8optionalIN32pxrInternal_v0_24__pxrReserved__18UsdNamespaceEditor14_ProcessedEditEE5resetEv(ptr noundef nonnull align 8 dereferenceable(168) %0) #1 comdat align 2 {
  %2 = alloca ptr, align 8
  store ptr %0, ptr %2, align 8
  %3 = load ptr, ptr %2, align 8
  call void @_ZNSt19_Optional_base_implIN32pxrInternal_v0_24__pxrReserved__18UsdNamespaceEditor14_ProcessedEditESt14_Optional_baseIS2_Lb0ELb0EEE8_M_resetEv(ptr noundef nonnull align 1 dereferenceable(1) %3) #11
  ret void
}

; Function Attrs: mustprogress nounwind uwtable
define linkonce_odr noundef nonnull align 8 dereferenceable(153) ptr @_ZNSt19_Optional_base_implIN32pxrInternal_v0_24__pxrReserved__18UsdNamespaceEditor14_ProcessedEditESt14_Optional_baseIS2_Lb0ELb0EEE6_M_getEv(ptr noundef nonnull align 1 dereferenceable(1) %0) #1 comdat align 2 {
  %2 = alloca ptr, align 8
  store ptr %0, ptr %2, align 8
  %3 = load ptr, ptr %2, align 8
  br label %4

4:                                                ; preds = %1
  br label %5

5:                                                ; preds = %4
  br label %6

6:                                                ; preds = %5
  %7 = getelementptr inbounds nuw %"struct.std::_Optional_base", ptr %3, i32 0, i32 0
  %8 = call noundef nonnull align 8 dereferenceable(153) ptr @_ZNSt22_Optional_payload_baseIN32pxrInternal_v0_24__pxrReserved__18UsdNamespaceEditor14_ProcessedEditEE6_M_getEv(ptr noundef nonnull align 8 dereferenceable(161) %7) #11
  ret ptr %8
}

; Function Attrs: mustprogress nounwind uwtable
define linkonce_odr noundef zeroext i1 @_ZNKSt19_Optional_base_implIN32pxrInternal_v0_24__pxrReserved__18UsdNamespaceEditor14_ProcessedEditESt14_Optional_baseIS2_Lb0ELb0EEE13_M_is_engagedEv(ptr noundef nonnull align 1 dereferenceable(1) %0) #1 comdat align 2 {
  %2 = alloca ptr, align 8
  store ptr %0, ptr %2, align 8
  %3 = load ptr, ptr %2, align 8
  %4 = getelementptr inbounds nuw %"struct.std::_Optional_base", ptr %3, i32 0, i32 0
  %5 = getelementptr inbounds nuw %"struct.std::_Optional_payload_base", ptr %4, i32 0, i32 1
  %6 = load i8, ptr %5, align 8
  %7 = trunc i8 %6 to i1
  ret i1 %7
}

; Function Attrs: mustprogress nounwind uwtable
define void @_ZN32pxrInternal_v0_24__pxrReserved__18UsdNamespaceEditor20_ClearProcessedEditsEv(ptr noundef nonnull align 8 dereferenceable(200) %0) #1 align 2 {
  %2 = alloca ptr, align 8
  store ptr %0, ptr %2, align 8
  %3 = load ptr, ptr %2, align 8
  %4 = getelementptr inbounds nuw %"class.pxrInternal_v0_24__pxrReserved__::UsdNamespaceEditor", ptr %3, i32 0, i32 3
  call void @_ZNSt8optionalIN32pxrInternal_v0_24__pxrReserved__18UsdNamespaceEditor14_ProcessedEditEE5resetEv(ptr noundef nonnull align 8 dereferenceable(168) %4) #11
  ret void
}

; Function Attrs: mustprogress nounwind uwtable
define linkonce_odr noundef ptr @_ZNSt8optionalIN32pxrInternal_v0_24__pxrReserved__18UsdNamespaceEditor14_ProcessedEditEEptEv(ptr noundef nonnull align 8 dereferenceable(168) %0) #1 comdat align 2 {
  %2 = alloca ptr, align 8
  store ptr %0, ptr %2, align 8
  %3 = load ptr, ptr %2, align 8
  %4 = call noundef nonnull align 8 dereferenceable(153) ptr @_ZNSt19_Optional_base_implIN32pxrInternal_v0_24__pxrReserved__18UsdNamespaceEditor14_ProcessedEditESt14_Optional_baseIS2_Lb0ELb0EEE6_M_getEv(ptr noundef nonnull align 1 dereferenceable(1) %3) #11
  ret ptr %4
}

; Function Attrs: mustprogress nounwind uwtable
define linkonce_odr void @_ZN32pxrInternal_v0_24__pxrReserved__13TfCallContextC2EPKcS2_mS2_(ptr noundef nonnull align 8 dereferenceable(33) %0, ptr noundef %1, ptr noundef %2, i64 noundef %3, ptr noundef %4) unnamed_addr #1 comdat align 2 {
  %6 = alloca ptr, align 8
  %7 = alloca ptr, align 8
  %8 = alloca ptr, align 8
  %9 = alloca i64, align 8
  %10 = alloca ptr, align 8
  store ptr %0, ptr %6, align 8
  store ptr %1, ptr %7, align 8
  store ptr %2, ptr %8, align 8
  store i64 %3, ptr %9, align 8
  store ptr %4, ptr %10, align 8
  %11 = load ptr, ptr %6, align 8
  %12 = getelementptr inbounds nuw %"class.pxrInternal_v0_24__pxrReserved__::TfCallContext", ptr %11, i32 0, i32 0
  %13 = load ptr, ptr %7, align 8
  store ptr %13, ptr %12, align 8
  %14 = getelementptr inbounds nuw %"class.pxrInternal_v0_24__pxrReserved__::TfCallContext", ptr %11, i32 0, i32 1
  %15 = load ptr, ptr %8, align 8
  store ptr %15, ptr %14, align 8
  %16 = getelementptr inbounds nuw %"class.pxrInternal_v0_24__pxrReserved__::TfCallContext", ptr %11, i32 0, i32 2
  %17 = load i64, ptr %9, align 8
  store i64 %17, ptr %16, align 8
  %18 = getelementptr inbounds nuw %"class.pxrInternal_v0_24__pxrReserved__::TfCallContext", ptr %11, i32 0, i32 3
  %19 = load ptr, ptr %10, align 8
  store ptr %19, ptr %18, align 8
  %20 = getelementptr inbounds nuw %"class.pxrInternal_v0_24__pxrReserved__::TfCallContext", ptr %11, i32 0, i32 4
  store i8 0, ptr %20, align 8
  ret void
}

; Function Attrs: mustprogress nounwind uwtable
define linkonce_odr noundef zeroext i1 @_ZNKSt8optionalIN32pxrInternal_v0_24__pxrReserved__18UsdNamespaceEditor14_ProcessedEditEEcvbEv(ptr noundef nonnull align 8 dereferenceable(168) %0) #1 comdat align 2 {
  %2 = alloca ptr, align 8
  store ptr %0, ptr %2, align 8
  %3 = load ptr, ptr %2, align 8
  %4 = call noundef zeroext i1 @_ZNKSt19_Optional_base_implIN32pxrInternal_v0_24__pxrReserved__18UsdNamespaceEditor14_ProcessedEditESt14_Optional_baseIS2_Lb0ELb0EEE13_M_is_engagedEv(ptr noundef nonnull align 1 dereferenceable(1) %3) #11
  ret i1 %4
}

; Function Attrs: mustprogress uwtable
define noundef zeroext i1 @_ZN32pxrInternal_v0_24__pxrReserved__18UsdNamespaceEditor10ApplyEditsEv(ptr noundef nonnull align 8 dereferenceable(200) %0) #0 align 2 {
  %2 = alloca i1, align 1
  %3 = alloca ptr, align 8
  %4 = alloca %"class.pxrInternal_v0_24__pxrReserved__::TfCallContext", align 8
  %5 = alloca i8, align 1
  store ptr %0, ptr %3, align 8
  %6 = load ptr, ptr %3, align 8
  call void @_ZNK32pxrInternal_v0_24__pxrReserved__18UsdNamespaceEditor21_ProcessEditsIfNeededEv(ptr noundef nonnull align 8 dereferenceable(200) %6)
  %7 = getelementptr inbounds nuw %"class.pxrInternal_v0_24__pxrReserved__::UsdNamespaceEditor", ptr %6, i32 0, i32 3
  %8 = call noundef zeroext i1 @_ZNKSt8optionalIN32pxrInternal_v0_24__pxrReserved__18UsdNamespaceEditor14_ProcessedEditEEcvbEv(ptr noundef nonnull align 8 dereferenceable(168) %7) #11
  br i1 %8, label %10, label %9

9:                                                ; preds = %1
  call void @_ZN32pxrInternal_v0_24__pxrReserved__13TfCallContextC2EPKcS2_mS2_(ptr noundef nonnull align 8 dereferenceable(33) %4, ptr noundef @.str, ptr noundef @__func__._ZN32pxrInternal_v0_24__pxrReserved__18UsdNamespaceEditor10ApplyEditsEv, i64 noundef 402, ptr noundef @__PRETTY_FUNCTION__._ZN32pxrInternal_v0_24__pxrReserved__18UsdNamespaceEditor10ApplyEditsEv)
  call void (ptr, i32, ptr, ...) @_ZN32pxrInternal_v0_24__pxrReserved__18Tf_PostErrorHelperERKNS_13TfCallContextENS_16TfDiagnosticTypeEPKcz(ptr noundef nonnull align 8 dereferenceable(33) %4, i32 noundef 1, ptr noundef @.str.1)
  store i1 false, ptr %2, align 1
  br label %17

10:                                               ; preds = %1
  %11 = getelementptr inbounds nuw %"class.pxrInternal_v0_24__pxrReserved__::UsdNamespaceEditor", ptr %6, i32 0, i32 3
  %12 = call noundef ptr @_ZNSt8optionalIN32pxrInternal_v0_24__pxrReserved__18UsdNamespaceEditor14_ProcessedEditEEptEv(ptr noundef nonnull align 8 dereferenceable(168) %11) #11
  %13 = call noundef zeroext i1 @_ZN32pxrInternal_v0_24__pxrReserved__18UsdNamespaceEditor14_ProcessedEdit5ApplyEv(ptr noundef nonnull align 8 dereferenceable(153) %12)
  %14 = zext i1 %13 to i8
  store i8 %14, ptr %5, align 1
  call void @_ZN32pxrInternal_v0_24__pxrReserved__18UsdNamespaceEditor20_ClearProcessedEditsEv(ptr noundef nonnull align 8 dereferenceable(200) %6)
  %15 = load i8, ptr %5, align 1
  %16 = trunc i8 %15 to i1
  store i1 %16, ptr %2, align 1
  br label %17

17:                                               ; preds = %10, %9
  %18 = load i1, ptr %2, align 1
  ret i1 %18
}