; Function Attrs: mustprogress uwtable
define noundef zeroext i1 @_ZN32pxrInternal_v0_24__pxrReserved__18UsdNamespaceEditor10ApplyEditsEv(ptr noundef nonnull align 8 dereferenceable(200) %0) local_unnamed_addr #0 align 2 {
  %2 = alloca %"class.pxrInternal_v0_24__pxrReserved__::TfCallContext", align 8
  tail call void @_ZNK32pxrInternal_v0_24__pxrReserved__18UsdNamespaceEditor21_ProcessEditsIfNeededEv(ptr noundef nonnull align 8 dereferenceable(200) %0)
  %3 = getelementptr inbounds nuw i8, ptr %0, i64 32
  %4 = getelementptr inbounds nuw i8, ptr %0, i64 192
  %5 = load i8, ptr %4, align 8
  %6 = trunc i8 %5 to i1
  br i1 %6, label %12, label %7

7:                                                ; preds = %1
  store ptr @.str, ptr %2, align 8
  %8 = getelementptr inbounds nuw i8, ptr %2, i64 8
  store ptr @__func__._ZN32pxrInternal_v0_24__pxrReserved__18UsdNamespaceEditor10ApplyEditsEv, ptr %8, align 8
  %9 = getelementptr inbounds nuw i8, ptr %2, i64 16
  store i64 402, ptr %9, align 8
  %10 = getelementptr inbounds nuw i8, ptr %2, i64 24
  store ptr @__PRETTY_FUNCTION__._ZN32pxrInternal_v0_24__pxrReserved__18UsdNamespaceEditor10ApplyEditsEv, ptr %10, align 8
  %11 = getelementptr inbounds nuw i8, ptr %2, i64 32
  store i8 0, ptr %11, align 8
  call void (ptr, i32, ptr, ...) @_ZN32pxrInternal_v0_24__pxrReserved__18Tf_PostErrorHelperERKNS_13TfCallContextENS_16TfDiagnosticTypeEPKcz(ptr noundef nonnull align 8 dereferenceable(33) %2, i32 noundef 1, ptr noundef nonnull @.str.1)
  br label %_ZN32pxrInternal_v0_24__pxrReserved__18UsdNamespaceEditor20_ClearProcessedEditsEv.exit

12:                                               ; preds = %1
  %13 = tail call noundef zeroext i1 @_ZN32pxrInternal_v0_24__pxrReserved__18UsdNamespaceEditor14_ProcessedEdit5ApplyEv(ptr noundef nonnull align 8 dereferenceable(153) %3)
  %14 = load i8, ptr %4, align 8
  %15 = trunc i8 %14 to i1
  br i1 %15, label %16, label %_ZN32pxrInternal_v0_24__pxrReserved__18UsdNamespaceEditor20_ClearProcessedEditsEv.exit

16:                                               ; preds = %12
  store i8 0, ptr %4, align 8
  tail call void @_ZN32pxrInternal_v0_24__pxrReserved__18UsdNamespaceEditor14_ProcessedEditD2Ev(ptr noundef nonnull align 8 dereferenceable(168) %3) #13
  br label %_ZN32pxrInternal_v0_24__pxrReserved__18UsdNamespaceEditor20_ClearProcessedEditsEv.exit

_ZN32pxrInternal_v0_24__pxrReserved__18UsdNamespaceEditor20_ClearProcessedEditsEv.exit: ; preds = %16, %12, %7
  %.0 = phi i1 [ false, %7 ], [ %13, %12 ], [ %13, %16 ]
  ret i1 %.0
}